; Function Attrs: mustprogress uwtable
define dso_local void @_ZNK3net20QuicNegotiableUint3218ToHandshakeMessageEPNS_22CryptoHandshakeMessageE(ptr noundef nonnull align 8 dereferenceable(32) %this, ptr noundef nonnull %out) unnamed_addr #0 align 2 {
entry:
  %negotiated_.i = getelementptr inbounds i8, ptr %this, i64 16
  %0 = load i8, ptr %negotiated_.i, align 8
  %1 = and i8 %0, 1
  %tobool.i.not = icmp eq i8 %1, 0
  %tag_2 = getelementptr inbounds i8, ptr %this, i64 8
  %2 = load i32, ptr %tag_2, align 8
  %. = select i1 %tobool.i.not, i64 20, i64 28
  %max_value_ = getelementptr inbounds i8, ptr %this, i64 %.
  tail call void @_ZN3net22CryptoHandshakeMessage8SetValueIjEEvjRKT_(ptr noundef nonnull align 8 dereferenceable(72) %out, i32 noundef %2, ptr noundef nonnull align 4 dereferenceable(4) %max_value_)
  ret void
}